; Function Attrs: mustprogress uwtable
define dso_local noundef zeroext i16 @_ZN17FileLineSingleton8msgEnAndEtt(ptr noundef nonnull align 8 dereferenceable(328) %0, i16 noundef zeroext %1, i16 noundef zeroext %2) local_unnamed_addr #3 align 2 {
  %4 = alloca %"class.std::bitset", align 8
  %5 = getelementptr inbounds i8, ptr %0, i64 304
  %6 = zext i16 %1 to i64
  %7 = getelementptr inbounds i8, ptr %0, i64 312
  %8 = load ptr, ptr %7, align 8
  %9 = load ptr, ptr %5, align 8
  %10 = ptrtoint ptr %8 to i64
  %11 = ptrtoint ptr %9 to i64
  %12 = sub i64 %10, %11
  %13 = ashr exact i64 %12, 4
  %.not.i.i.i = icmp ugt i64 %13, %6
  %.07.i.i.sroa.gep18 = getelementptr inbounds i8, ptr %4, i64 8
  br i1 %.not.i.i.i, label %_ZNK17FileLineSingleton5msgEnEt.exit, label %14

14:                                               ; preds = %3
  tail call void (ptr, ...) @_ZSt24__throw_out_of_range_fmtPKcz(ptr noundef nonnull @.str.61, i64 noundef %6, i64 noundef %13) #22
  unreachable

_ZNK17FileLineSingleton5msgEnEt.exit:             ; preds = %3
  %15 = getelementptr inbounds %"class.std::bitset", ptr %9, i64 %6
  call void @llvm.memcpy.p0.p0.i64(ptr noundef nonnull align 8 dereferenceable(16) %4, ptr noundef nonnull align 8 dereferenceable(16) %15, i64 16, i1 false)
  %16 = zext i16 %2 to i64
  %.not.i.i.i7 = icmp ugt i64 %13, %16
  br i1 %.not.i.i.i7, label %_ZNK17FileLineSingleton5msgEnEt.exit10, label %17

17:                                               ; preds = %_ZNK17FileLineSingleton5msgEnEt.exit
  tail call void (ptr, ...) @_ZSt24__throw_out_of_range_fmtPKcz(ptr noundef nonnull @.str.61, i64 noundef %16, i64 noundef %13) #22
  unreachable

_ZNK17FileLineSingleton5msgEnEt.exit10:           ; preds = %_ZNK17FileLineSingleton5msgEnEt.exit
  %18 = getelementptr inbounds %"class.std::bitset", ptr %9, i64 %16
  %19 = load i64, ptr %18, align 8
  %20 = load i64, ptr %4, align 8
  %21 = and i64 %20, %19
  store i64 %21, ptr %4, align 8
  %22 = getelementptr inbounds i8, ptr %18, i64 8
  %23 = load i64, ptr %22, align 8
  %24 = load i64, ptr %.07.i.i.sroa.gep18, align 8
  %25 = and i64 %24, %23
  store i64 %25, ptr %.07.i.i.sroa.gep18, align 8
  br label %26

26:                                               ; preds = %26, %_ZNK17FileLineSingleton5msgEnEt.exit10
  %.not8.i.i = phi i1 [ true, %_ZNK17FileLineSingleton5msgEnEt.exit10 ], [ false, %26 ]
  %.07.i.i.sroa.phi = phi ptr [ %4, %_ZNK17FileLineSingleton5msgEnEt.exit10 ], [ %.07.i.i.sroa.gep18, %26 ]
  %.07.i.i = phi i64 [ 0, %_ZNK17FileLineSingleton5msgEnEt.exit10 ], [ 1, %26 ]
  %27 = load i64, ptr %.07.i.i.sroa.phi, align 8
  %28 = getelementptr inbounds [2 x i64], ptr %15, i64 0, i64 %.07.i.i
  %29 = load i64, ptr %28, align 8
  %.not.i.i = icmp eq i64 %27, %29
  %or.cond.i.i = and i1 %.not8.i.i, %.not.i.i
  br i1 %or.cond.i.i, label %26, label %_ZNKSt6bitsetILm119EEeqERKS0_.exit, !llvm.loop !22

_ZNKSt6bitsetILm119EEeqERKS0_.exit:               ; preds = %26
  br i1 %.not.i.i, label %35, label %_ZNK17FileLineSingleton5msgEnEt.exit12

_ZNK17FileLineSingleton5msgEnEt.exit12:           ; preds = %_ZNKSt6bitsetILm119EEeqERKS0_.exit, %_ZNK17FileLineSingleton5msgEnEt.exit12
  %.not8.i.i13 = phi i1 [ false, %_ZNK17FileLineSingleton5msgEnEt.exit12 ], [ true, %_ZNKSt6bitsetILm119EEeqERKS0_.exit ]
  %.07.i.i14.sroa.phi = phi ptr [ %.07.i.i.sroa.gep18, %_ZNK17FileLineSingleton5msgEnEt.exit12 ], [ %4, %_ZNKSt6bitsetILm119EEeqERKS0_.exit ]
  %.07.i.i14 = phi i64 [ 1, %_ZNK17FileLineSingleton5msgEnEt.exit12 ], [ 0, %_ZNKSt6bitsetILm119EEeqERKS0_.exit ]
  %30 = load i64, ptr %.07.i.i14.sroa.phi, align 8
  %31 = getelementptr inbounds [2 x i64], ptr %18, i64 0, i64 %.07.i.i14
  %32 = load i64, ptr %31, align 8
  %.not.i.i15 = icmp eq i64 %30, %32
  %or.cond.i.i16 = and i1 %.not8.i.i13, %.not.i.i15
  br i1 %or.cond.i.i16, label %_ZNK17FileLineSingleton5msgEnEt.exit12, label %_ZNKSt6bitsetILm119EEeqERKS0_.exit17, !llvm.loop !22

_ZNKSt6bitsetILm119EEeqERKS0_.exit17:             ; preds = %_ZNK17FileLineSingleton5msgEnEt.exit12
  br i1 %.not.i.i15, label %35, label %33

33:                                               ; preds = %_ZNKSt6bitsetILm119EEeqERKS0_.exit17
  %34 = call noundef zeroext i16 @_ZN17FileLineSingleton14addMsgEnBitSetERKSt6bitsetILm119EE(ptr noundef nonnull align 8 dereferenceable(328) %0, ptr noundef nonnull align 8 dereferenceable(16) %4)
  br label %35

35:                                               ; preds = %_ZNKSt6bitsetILm119EEeqERKS0_.exit17, %_ZNKSt6bitsetILm119EEeqERKS0_.exit, %33
  %.0 = phi i16 [ %34, %33 ], [ %1, %_ZNKSt6bitsetILm119EEeqERKS0_.exit ], [ %2, %_ZNKSt6bitsetILm119EEeqERKS0_.exit17 ]
  ret i16 %.0
}